target datalayout = "e-m:e-p270:32:32-p271:32:32-p272:64:64-i64:64-i128:128-f80:128-n8:16:32:64-S128"
target triple = "x86_64-pc-linux-gnu"

%union.pthread_mutex_t = type { %struct.__pthread_mutex_s }
%struct.__pthread_mutex_s = type { i32, i32, i32, i32, i32, i16, i16, %struct.__pthread_internal_list }
%struct.__pthread_internal_list = type { ptr, ptr }
%struct.WebPWorkerInterface = type { ptr, ptr, ptr, ptr, ptr, ptr }
%struct.VP8Decoder = type { i32, i32, ptr, %struct.VP8BitReader, i32, %struct.VP8FrameHeader, %struct.VP8PictureHeader, %struct.VP8FilterHeader, %struct.VP8SegmentHeader, %struct.WebPWorker, i32, i32, i32, %struct.VP8ThreadContext, i32, i32, i32, i32, i32, i32, i32, [8 x %struct.VP8BitReader], i32, %struct.VP8Random, [4 x %struct.VP8QuantMatrix], %struct.VP8Proba, i32, i8, ptr, [4 x i8], ptr, ptr, ptr, ptr, ptr, ptr, ptr, i32, i32, ptr, i64, i32, i32, ptr, i32, [4 x [2 x %struct.VP8FInfo]], ptr, ptr, i64, i32, ptr, ptr, ptr, i32 }
%struct.VP8BitReader = type { i64, i32, i32, ptr, ptr, ptr, i32 }
%struct.VP8FrameHeader = type { i8, i8, i8, i32 }
%struct.VP8PictureHeader = type { i16, i16, i8, i8, i8, i8 }
%struct.VP8FilterHeader = type { i32, i32, i32, i32, [4 x i32], [4 x i32] }
%struct.VP8SegmentHeader = type { i32, i32, i32, [4 x i8], [4 x i8] }
%struct.WebPWorker = type { ptr, i32, ptr, ptr, ptr, i32 }
%struct.VP8ThreadContext = type { i32, i32, i32, ptr, ptr, %struct.VP8Io }
%struct.VP8Io = type { i32, i32, i32, i32, i32, ptr, ptr, ptr, i32, i32, ptr, ptr, ptr, ptr, i32, i64, ptr, i32, i32, i32, i32, i32, i32, i32, i32, i32, ptr }
%struct.VP8Random = type { i32, i32, [55 x i32], i32 }
%struct.VP8QuantMatrix = type { [2 x i32], [2 x i32], [2 x i32], i32, i32 }
%struct.VP8Proba = type { [3 x i8], [4 x [8 x %struct.VP8BandProbas]], [4 x [17 x ptr]] }
%struct.VP8BandProbas = type { [3 x [11 x i8]] }
%struct.VP8FInfo = type { i8, i8, i8, i8 }

@.str.1 = private unnamed_addr constant [3 x i8] c"OK\00", align 1
@InitGetCoeffs.InitGetCoeffs_body_last_cpuinfo_used = internal global ptr @InitGetCoeffs.InitGetCoeffs_body_last_cpuinfo_used, align 8
@InitGetCoeffs.InitGetCoeffs_body_lock = internal global %union.pthread_mutex_t zeroinitializer, align 8
@VP8GetCPUInfo = external global ptr, align 8
@GetCoeffs = internal global ptr null, align 8

; Function Attrs: nounwind uwtable
define internal void @InitGetCoeffs_body() #0 {
  %1 = load ptr, ptr @VP8GetCPUInfo, align 8, !tbaa !33
  %2 = icmp ne ptr %1, null
  br i1 %2, label %3, label %8

3:                                                ; preds = %0
  %4 = load ptr, ptr @VP8GetCPUInfo, align 8, !tbaa !33
  %5 = call i32 %4(i32 noundef 2)
  %6 = icmp ne i32 %5, 0
  br i1 %6, label %7, label %8

7:                                                ; preds = %3
  store volatile ptr @GetCoeffsAlt, ptr @GetCoeffs, align 8, !tbaa !33
  br label %9

8:                                                ; preds = %3, %0
  store volatile ptr @GetCoeffsFast, ptr @GetCoeffs, align 8, !tbaa !33
  br label %9

9:                                                ; preds = %8, %7
  ret void
}

; Function Attrs: nounwind uwtable
define internal void @InitGetCoeffs() #0 {
  br label %1

1:                                                ; preds = %0
  %2 = call i32 @pthread_mutex_lock(ptr noundef @InitGetCoeffs.InitGetCoeffs_body_lock) #8
  %3 = icmp ne i32 %2, 0
  br i1 %3, label %4, label %5

4:                                                ; preds = %1
  br label %13

5:                                                ; preds = %1
  %6 = load volatile ptr, ptr @InitGetCoeffs.InitGetCoeffs_body_last_cpuinfo_used, align 8, !tbaa !33
  %7 = load ptr, ptr @VP8GetCPUInfo, align 8, !tbaa !33
  %8 = icmp ne ptr %6, %7
  br i1 %8, label %9, label %10

9:                                                ; preds = %5
  call void @InitGetCoeffs_body()
  br label %10

10:                                               ; preds = %9, %5
  %11 = load ptr, ptr @VP8GetCPUInfo, align 8, !tbaa !33
  store volatile ptr %11, ptr @InitGetCoeffs.InitGetCoeffs_body_last_cpuinfo_used, align 8, !tbaa !33
  %12 = call i32 @pthread_mutex_unlock(ptr noundef @InitGetCoeffs.InitGetCoeffs_body_lock) #8
  br label %13

13:                                               ; preds = %10, %4
  ret void
}

; Function Attrs: nounwind uwtable
define internal void @SetOk(ptr noundef %0) #0 {
  %2 = alloca ptr, align 8
  store ptr %0, ptr %2, align 8, !tbaa !10
  %3 = load ptr, ptr %2, align 8, !tbaa !10
  %4 = getelementptr inbounds nuw %struct.VP8Decoder, ptr %3, i32 0, i32 0
  store i32 0, ptr %4, align 8, !tbaa !31
  %5 = load ptr, ptr %2, align 8, !tbaa !10
  %6 = getelementptr inbounds nuw %struct.VP8Decoder, ptr %5, i32 0, i32 2
  store ptr @.str.1, ptr %6, align 8, !tbaa !32
  ret void
}

; Function Attrs: nounwind uwtable
define hidden ptr @VP8New() #0 {
  %1 = alloca ptr, align 8
  call void @llvm.lifetime.start.p0(i64 8, ptr %1) #8
  %2 = call ptr @WebPSafeCalloc(i64 noundef 1, i64 noundef 3024)
  store ptr %2, ptr %1, align 8, !tbaa !10
  %3 = load ptr, ptr %1, align 8, !tbaa !10
  %4 = icmp ne ptr %3, null
  br i1 %4, label %5, label %16

5:                                                ; preds = %0
  %6 = load ptr, ptr %1, align 8, !tbaa !10
  call void @SetOk(ptr noundef %6)
  %7 = call ptr @WebPGetWorkerInterface()
  %8 = getelementptr inbounds nuw %struct.WebPWorkerInterface, ptr %7, i32 0, i32 0
  %9 = load ptr, ptr %8, align 8, !tbaa !12
  %10 = load ptr, ptr %1, align 8, !tbaa !10
  %11 = getelementptr inbounds nuw %struct.VP8Decoder, ptr %10, i32 0, i32 9
  call void %9(ptr noundef %11)
  %12 = load ptr, ptr %1, align 8, !tbaa !10
  %13 = getelementptr inbounds nuw %struct.VP8Decoder, ptr %12, i32 0, i32 1
  store i32 0, ptr %13, align 4, !tbaa !14
  %14 = load ptr, ptr %1, align 8, !tbaa !10
  %15 = getelementptr inbounds nuw %struct.VP8Decoder, ptr %14, i32 0, i32 20
  store i32 0, ptr %15, align 8, !tbaa !30
  call void @InitGetCoeffs()
  br label %16

16:                                               ; preds = %5, %0
  %17 = load ptr, ptr %1, align 8, !tbaa !10
  call void @llvm.lifetime.end.p0(i64 8, ptr %1) #8
  ret ptr %17
}