; Function Attrs: nounwind uwtable
define hidden ptr @VP8New() local_unnamed_addr #3 {
  %1 = tail call ptr @WebPSafeCalloc(i64 noundef 1, i64 noundef 3024) #13
  %.not = icmp eq ptr %1, null
  br i1 %.not, label %InitGetCoeffs.exit, label %2

2:                                                ; preds = %0
  store i32 0, ptr %1, align 8, !tbaa !3
  %3 = getelementptr inbounds nuw i8, ptr %1, i64 8
  store ptr @.str.1, ptr %3, align 8, !tbaa !23
  %4 = tail call ptr @WebPGetWorkerInterface() #13
  %5 = load ptr, ptr %4, align 8, !tbaa !24
  %6 = getelementptr inbounds nuw i8, ptr %1, i64 152
  tail call void %5(ptr noundef nonnull %6) #13
  %7 = getelementptr inbounds nuw i8, ptr %1, i64 4
  store i32 0, ptr %7, align 4, !tbaa !26
  %8 = getelementptr inbounds nuw i8, ptr %1, i64 432
  store i32 0, ptr %8, align 8, !tbaa !27
  %9 = tail call i32 @pthread_mutex_lock(ptr noundef nonnull @InitGetCoeffs.InitGetCoeffs_body_lock) #13
  %.not.i = icmp eq i32 %9, 0
  br i1 %.not.i, label %10, label %InitGetCoeffs.exit

10:                                               ; preds = %2
  %11 = load volatile ptr, ptr @InitGetCoeffs.InitGetCoeffs_body_last_cpuinfo_used, align 8, !tbaa !28
  %12 = load ptr, ptr @VP8GetCPUInfo, align 8, !tbaa !28
  %.not1.i = icmp eq ptr %11, %12
  br i1 %.not1.i, label %17, label %13

13:                                               ; preds = %10
  %.not.i.i = icmp eq ptr %12, null
  br i1 %.not.i.i, label %16, label %14

14:                                               ; preds = %13
  %15 = tail call i32 %12(i32 noundef 2) #13
  %.not1.i.i = icmp eq i32 %15, 0
  br i1 %.not1.i.i, label %16, label %InitGetCoeffs_body.exit.i

16:                                               ; preds = %14, %13
  br label %InitGetCoeffs_body.exit.i

InitGetCoeffs_body.exit.i:                        ; preds = %16, %14
  %GetCoeffsFast.sink.i.i = phi ptr [ @GetCoeffsFast, %16 ], [ @GetCoeffsAlt, %14 ]
  store volatile ptr %GetCoeffsFast.sink.i.i, ptr @GetCoeffs, align 8, !tbaa !28
  %.pre.i = load ptr, ptr @VP8GetCPUInfo, align 8, !tbaa !28
  br label %17

17:                                               ; preds = %InitGetCoeffs_body.exit.i, %10
  %18 = phi ptr [ %.pre.i, %InitGetCoeffs_body.exit.i ], [ %12, %10 ]
  store volatile ptr %18, ptr @InitGetCoeffs.InitGetCoeffs_body_last_cpuinfo_used, align 8, !tbaa !28
  %19 = tail call i32 @pthread_mutex_unlock(ptr noundef nonnull @InitGetCoeffs.InitGetCoeffs_body_lock) #13
  br label %InitGetCoeffs.exit

InitGetCoeffs.exit:                               ; preds = %17, %2, %0
  ret ptr %1
}